target datalayout = "e-m:e-p270:32:32-p271:32:32-p272:64:64-i64:64-i128:128-f80:128-n8:16:32:64-S128"
target triple = "x86_64-pc-linux-gnu"

; Function Attrs: nounwind uwtable
define hidden zeroext i1 @SDL_IsJoystickHoriSteamController(i16 noundef zeroext %0, i16 noundef zeroext %1) #0 {
  %3 = alloca i16, align 2
  %4 = alloca i16, align 2
  store i16 %0, ptr %3, align 2
  store i16 %1, ptr %4, align 2
  %5 = load i16, ptr %3, align 2
  %6 = zext i16 %5 to i32
  %7 = icmp eq i32 %6, 3853
  br i1 %7, label %8, label %18

8:                                                ; preds = %2
  %9 = load i16, ptr %4, align 2
  %10 = zext i16 %9 to i32
  %11 = icmp eq i32 %10, 427
  br i1 %11, label %16, label %12

12:                                               ; preds = %8
  %13 = load i16, ptr %4, align 2
  %14 = zext i16 %13 to i32
  %15 = icmp eq i32 %14, 406
  br label %16

16:                                               ; preds = %12, %8
  %17 = phi i1 [ true, %8 ], [ %15, %12 ]
  br label %18

18:                                               ; preds = %16, %2
  %19 = phi i1 [ false, %2 ], [ %17, %16 ]
  ret i1 %19
}