; Function Attrs: mustprogress nofree norecurse nosync nounwind willreturn memory(none) uwtable
define hidden noundef zeroext i1 @SDL_IsJoystickHoriSteamController(i16 noundef zeroext %0, i16 noundef zeroext %1) local_unnamed_addr #4 {
  %3 = icmp eq i16 %0, 3853
  br i1 %3, label %4, label %8

4:                                                ; preds = %2
  %5 = icmp eq i16 %1, 427
  %6 = icmp eq i16 %1, 406
  %7 = or i1 %5, %6
  br label %8

8:                                                ; preds = %4, %2
  %9 = phi i1 [ false, %2 ], [ %7, %4 ]
  ret i1 %9
}